; Function Attrs: mustprogress nofree norecurse nosync nounwind willreturn memory(argmem: read) uwtable
define dso_local zeroext i1 @decl_is_local(ptr nocapture noundef readonly %0) local_unnamed_addr #1 {
  %2 = getelementptr inbounds i8, ptr %0, i64 24
  %3 = load i64, ptr %2, align 8
  %4 = and i64 %3, 1048576
  %.not = icmp ne i64 %4, 0
  %5 = and i64 %3, 7168
  %.not3 = icmp eq i64 %5, 0
  %or.cond = or i1 %.not, %.not3
  br i1 %or.cond, label %8, label %6

6:                                                ; preds = %1
  %7 = and i64 %3, 268435456
  %.not4 = icmp eq i64 %7, 0
  br label %8

8:                                                ; preds = %6, %1
  %9 = phi i1 [ false, %1 ], [ %.not4, %6 ]
  ret i1 %9
}